target datalayout = "e-m:e-p270:32:32-p271:32:32-p272:64:64-i64:64-i128:128-f80:128-n8:16:32:64-S128"
target triple = "x86_64-pc-linux-gnu"

%struct.expert_field = type { i32, i32 }
%struct._packet_info = type { ptr, ptr, i32, i32, %struct.nstime_t, %struct.nstime_t, %struct.nstime_t, i32, ptr, ptr, ptr, ptr, %struct._address, %struct._address, %struct._address, %struct._address, %struct._address, %struct._address, i32, ptr, i32, %struct.anon, i32, i32, i32, i32, ptr, i32, ptr, ptr, i16, i16, i32, i32, i16, i32, i32, ptr, ptr, ptr, i8, i8, i16, i16, i16, i32, i16, i16, ptr, ptr, ptr, ptr, ptr, i32 }
%struct.nstime_t = type { i64, i32 }
%struct._address = type { i32, i32, ptr, ptr }
%struct.anon = type { i8, [3 x i8] }

@ett_dcom_dualstringarray = internal global i32 0, align 4
@hf_dcom_dualstringarray_num_entries = internal global i32 0, align 4
@hf_dcom_dualstringarray_security_offset = internal global i32 0, align 4
@hf_dcom_dualstringarray_string = internal global i32 0, align 4
@ett_dcom_dualstringarray_binding = internal global i32 0, align 4
@hf_dcom_dualstringarray_string_tower_id = internal global i32 0, align 4
@hf_dcom_dualstringarray_string_network_addr = internal global i32 0, align 4
@ei_dcom_dualstringarray_mult_ip = internal global %struct.expert_field zeroinitializer, align 4
@.str.149 = private unnamed_addr constant [37 x i8] c"DUALSTRINGARRAY: multiple IP's %s %s\00", align 1
@.str.150 = private unnamed_addr constant [35 x i8] c"[%u]: TowerId=%s, NetworkAddr=\22%s\22\00", align 1
@.str.151 = private unnamed_addr constant [16 x i8] c"Unknown (0x%04x\00", align 1
@hf_dcom_dualstringarray_security = internal global i32 0, align 4
@hf_dcom_dualstringarray_security_authn_svc = internal global i32 0, align 4
@hf_dcom_dualstringarray_security_authz_svc = internal global i32 0, align 4
@hf_dcom_dualstringarray_security_princ_name = internal global i32 0, align 4
@.str.152 = private unnamed_addr constant [55 x i8] c"[%u]: AuthnSvc=0x%04x, AuthzSvc=0x%04x, PrincName=\22%s\22\00", align 1
@.str.153 = private unnamed_addr constant [41 x i8] c": STRINGBINDINGs=%u, SECURITYBINDINGs=%u\00", align 1

; Function Attrs: nounwind uwtable
define internal void @set_address(ptr noundef %0, i32 noundef %1, i32 noundef %2, ptr noundef %3) #0 {
  %5 = alloca ptr, align 8
  %6 = alloca i32, align 4
  %7 = alloca i32, align 4
  %8 = alloca ptr, align 8
  store ptr %0, ptr %5, align 8
  store i32 %1, ptr %6, align 4
  store i32 %2, ptr %7, align 4
  store ptr %3, ptr %8, align 8
  %9 = load i32, ptr %7, align 4
  %10 = icmp eq i32 %9, 0
  br i1 %10, label %11, label %14

11:                                               ; preds = %4
  br label %12

12:                                               ; preds = %11
  br label %13

13:                                               ; preds = %12
  br label %19

14:                                               ; preds = %4
  br label %15

15:                                               ; preds = %14
  br label %16

16:                                               ; preds = %15
  br label %17

17:                                               ; preds = %16
  br label %18

18:                                               ; preds = %17
  br label %19

19:                                               ; preds = %18, %13
  %20 = load i32, ptr %6, align 4
  %21 = load ptr, ptr %5, align 8
  %22 = getelementptr inbounds %struct._address, ptr %21, i32 0, i32 0
  store i32 %20, ptr %22, align 8
  %23 = load i32, ptr %7, align 4
  %24 = load ptr, ptr %5, align 8
  %25 = getelementptr inbounds %struct._address, ptr %24, i32 0, i32 1
  store i32 %23, ptr %25, align 4
  %26 = load ptr, ptr %8, align 8
  %27 = load ptr, ptr %5, align 8
  %28 = getelementptr inbounds %struct._address, ptr %27, i32 0, i32 2
  store ptr %26, ptr %28, align 8
  %29 = load ptr, ptr %5, align 8
  %30 = getelementptr inbounds %struct._address, ptr %29, i32 0, i32 3
  store ptr null, ptr %30, align 8
  ret void
}

; Function Attrs: nounwind uwtable
define hidden i32 @dissect_dcom_DUALSTRINGARRAY(ptr noundef %0, i32 noundef %1, ptr noundef %2, ptr noundef %3, ptr noundef %4, ptr noundef %5, i32 noundef %6, ptr noundef %7) #0 {
  %9 = alloca ptr, align 8
  %10 = alloca i32, align 4
  %11 = alloca ptr, align 8
  %12 = alloca ptr, align 8
  %13 = alloca ptr, align 8
  %14 = alloca ptr, align 8
  %15 = alloca i32, align 4
  %16 = alloca ptr, align 8
  %17 = alloca i16, align 2
  %18 = alloca i16, align 2
  %19 = alloca [1000 x i8], align 16
  %20 = alloca i32, align 4
  %21 = alloca i32, align 4
  %22 = alloca i16, align 2
  %23 = alloca i16, align 2
  %24 = alloca i16, align 2
  %25 = alloca ptr, align 8
  %26 = alloca ptr, align 8
  %27 = alloca i32, align 4
  %28 = alloca i32, align 4
  %29 = alloca i32, align 4
  %30 = alloca ptr, align 8
  %31 = alloca ptr, align 8
  %32 = alloca i32, align 4
  %33 = alloca i32, align 4
  %34 = alloca i32, align 4
  %35 = alloca i32, align 4
  %36 = alloca i32, align 4
  %37 = alloca ptr, align 8
  %38 = alloca %struct._address, align 8
  %39 = alloca %struct._address, align 8
  store ptr %0, ptr %9, align 8
  store i32 %1, ptr %10, align 4
  store ptr %2, ptr %11, align 8
  store ptr %3, ptr %12, align 8
  store ptr %4, ptr %13, align 8
  store ptr %5, ptr %14, align 8
  store i32 %6, ptr %15, align 4
  store ptr %7, ptr %16, align 8
  store i32 1000, ptr %20, align 4
  store i32 0, ptr %28, align 4
  store i32 0, ptr %29, align 4
  store i32 0, ptr %34, align 4
  store i32 0, ptr %35, align 4
  %40 = load ptr, ptr %12, align 8
  %41 = load i32, ptr %15, align 4
  %42 = load ptr, ptr %9, align 8
  %43 = load i32, ptr %10, align 4
  %44 = call ptr @proto_tree_add_item(ptr noundef %40, i32 noundef %41, ptr noundef %42, i32 noundef %43, i32 noundef 0, i32 noundef 0)
  store ptr %44, ptr %25, align 8
  %45 = load ptr, ptr %25, align 8
  %46 = load i32, ptr @ett_dcom_dualstringarray, align 4
  %47 = call ptr @proto_item_add_subtree(ptr noundef %45, i32 noundef %46)
  store ptr %47, ptr %26, align 8
  %48 = load ptr, ptr %9, align 8
  %49 = load i32, ptr %10, align 4
  %50 = load ptr, ptr %11, align 8
  %51 = load ptr, ptr %26, align 8
  %52 = load ptr, ptr %13, align 8
  %53 = load ptr, ptr %14, align 8
  %54 = load i32, ptr @hf_dcom_dualstringarray_num_entries, align 4
  %55 = call i32 @dissect_ndr_uint16(ptr noundef %48, i32 noundef %49, ptr noundef %50, ptr noundef %51, ptr noundef %52, ptr noundef %53, i32 noundef %54, ptr noundef %17)
  store i32 %55, ptr %10, align 4
  %56 = load i32, ptr %10, align 4
  %57 = sub i32 %56, 2
  store i32 %57, ptr %27, align 4
  %58 = load ptr, ptr %9, align 8
  %59 = load i32, ptr %10, align 4
  %60 = load ptr, ptr %11, align 8
  %61 = load ptr, ptr %26, align 8
  %62 = load ptr, ptr %13, align 8
  %63 = load ptr, ptr %14, align 8
  %64 = load i32, ptr @hf_dcom_dualstringarray_security_offset, align 4
  %65 = call i32 @dissect_ndr_uint16(ptr noundef %58, i32 noundef %59, ptr noundef %60, ptr noundef %61, ptr noundef %62, ptr noundef %63, i32 noundef %64, ptr noundef %18)
  store i32 %65, ptr %10, align 4
  br label %66

66:                                               ; preds = %142, %8
  %67 = load ptr, ptr %9, align 8
  %68 = load i32, ptr %10, align 4
  %69 = call zeroext i16 @tvb_get_ntohs(ptr noundef %67, i32 noundef %68)
  %70 = icmp ne i16 %69, 0
  br i1 %70, label %71, label %153

71:                                               ; preds = %66
  %72 = load i32, ptr %28, align 4
  %73 = add i32 %72, 1
  store i32 %73, ptr %28, align 4
  %74 = load ptr, ptr %26, align 8
  %75 = load i32, ptr @hf_dcom_dualstringarray_string, align 4
  %76 = load ptr, ptr %9, align 8
  %77 = load i32, ptr %10, align 4
  %78 = call ptr @proto_tree_add_item(ptr noundef %74, i32 noundef %75, ptr noundef %76, i32 noundef %77, i32 noundef 0, i32 noundef 0)
  store ptr %78, ptr %30, align 8
  %79 = load ptr, ptr %30, align 8
  %80 = load i32, ptr @ett_dcom_dualstringarray_binding, align 4
  %81 = call ptr @proto_item_add_subtree(ptr noundef %79, i32 noundef %80)
  store ptr %81, ptr %31, align 8
  %82 = load i32, ptr %10, align 4
  store i32 %82, ptr %32, align 4
  %83 = load ptr, ptr %9, align 8
  %84 = load i32, ptr %10, align 4
  %85 = load ptr, ptr %11, align 8
  %86 = load ptr, ptr %31, align 8
  %87 = load ptr, ptr %13, align 8
  %88 = load ptr, ptr %14, align 8
  %89 = load i32, ptr @hf_dcom_dualstringarray_string_tower_id, align 4
  %90 = call i32 @dissect_ndr_uint16(ptr noundef %83, i32 noundef %84, ptr noundef %85, ptr noundef %86, ptr noundef %87, ptr noundef %88, i32 noundef %89, ptr noundef %22)
  store i32 %90, ptr %10, align 4
  %91 = load i32, ptr %10, align 4
  store i32 %91, ptr %21, align 4
  %92 = load ptr, ptr %9, align 8
  %93 = load i32, ptr %10, align 4
  %94 = load i32, ptr %20, align 4
  %95 = getelementptr inbounds [1000 x i8], ptr %19, i64 0, i64 0
  %96 = load i32, ptr %20, align 4
  %97 = call i32 @dcom_tvb_get_nwstringz0(ptr noundef %92, i32 noundef %93, i32 noundef %94, ptr noundef %95, i32 noundef %96, ptr noundef %33)
  store i32 %97, ptr %10, align 4
  %98 = load ptr, ptr %31, align 8
  %99 = load i32, ptr @hf_dcom_dualstringarray_string_network_addr, align 4
  %100 = load ptr, ptr %9, align 8
  %101 = load i32, ptr %21, align 4
  %102 = load i32, ptr %10, align 4
  %103 = load i32, ptr %21, align 4
  %104 = sub i32 %102, %103
  %105 = getelementptr inbounds [1000 x i8], ptr %19, i64 0, i64 0
  %106 = call ptr @proto_tree_add_string(ptr noundef %98, i32 noundef %99, ptr noundef %100, i32 noundef %101, i32 noundef %104, ptr noundef %105)
  store ptr %106, ptr %37, align 8
  %107 = getelementptr inbounds [1000 x i8], ptr %19, i64 0, i64 0
  %108 = call zeroext i1 @ws_inet_pton4(ptr noundef %107, ptr noundef %36)
  br i1 %108, label %109, label %142

109:                                              ; preds = %71
  %110 = getelementptr inbounds [1000 x i8], ptr %19, i64 0, i64 0
  %111 = call i32 @get_host_ipaddr(ptr noundef %110, ptr noundef %35)
  %112 = icmp ne i32 %111, 0
  br i1 %112, label %113, label %141

113:                                              ; preds = %109
  %114 = load i32, ptr %34, align 4
  %115 = icmp eq i32 %114, 0
  br i1 %115, label %116, label %123

116:                                              ; preds = %113
  %117 = load ptr, ptr %16, align 8
  %118 = icmp ne ptr %117, null
  br i1 %118, label %119, label %121

119:                                              ; preds = %116
  %120 = load ptr, ptr %16, align 8
  call void @llvm.memcpy.p0.p0.i64(ptr align 1 %120, ptr align 4 %35, i64 4, i1 false)
  br label %121

121:                                              ; preds = %119, %116
  %122 = load i32, ptr %35, align 4
  store i32 %122, ptr %34, align 4
  br label %140

123:                                              ; preds = %113
  %124 = load i32, ptr %34, align 4
  %125 = load i32, ptr %35, align 4
  %126 = icmp ne i32 %124, %125
  br i1 %126, label %127, label %139

127:                                              ; preds = %123
  call void @set_address(ptr noundef %38, i32 noundef 2, i32 noundef 4, ptr noundef %34)
  call void @set_address(ptr noundef %39, i32 noundef 2, i32 noundef 4, ptr noundef %35)
  %128 = load ptr, ptr %11, align 8
  %129 = load ptr, ptr %37, align 8
  %130 = load ptr, ptr %11, align 8
  %131 = getelementptr inbounds %struct._packet_info, ptr %130, i32 0, i32 50
  %132 = load ptr, ptr %131, align 8
  %133 = call ptr @address_to_str(ptr noundef %132, ptr noundef %38)
  %134 = load ptr, ptr %11, align 8
  %135 = getelementptr inbounds %struct._packet_info, ptr %134, i32 0, i32 50
  %136 = load ptr, ptr %135, align 8
  %137 = call ptr @address_to_str(ptr noundef %136, ptr noundef %39)
  %138 = call ptr (ptr, ptr, ptr, ptr, ...) @expert_add_info_format(ptr noundef %128, ptr noundef %129, ptr noundef @ei_dcom_dualstringarray_mult_ip, ptr noundef @.str.149, ptr noundef %133, ptr noundef %137)
  br label %139

139:                                              ; preds = %127, %123
  br label %140

140:                                              ; preds = %139, %121
  br label %141

141:                                              ; preds = %140, %109
  br label %142

142:                                              ; preds = %141, %71
  %143 = load ptr, ptr %30, align 8
  %144 = load i32, ptr %28, align 4
  %145 = load i16, ptr %22, align 2
  %146 = zext i16 %145 to i32
  %147 = call ptr @val_to_str(i32 noundef %146, ptr noundef @dcom_protseq_vals, ptr noundef @.str.151)
  %148 = getelementptr inbounds [1000 x i8], ptr %19, i64 0, i64 0
  call void (ptr, ptr, ...) @proto_item_append_text(ptr noundef %143, ptr noundef @.str.150, i32 noundef %144, ptr noundef %147, ptr noundef %148)
  %149 = load ptr, ptr %30, align 8
  %150 = load i32, ptr %10, align 4
  %151 = load i32, ptr %32, align 4
  %152 = sub i32 %150, %151
  call void @proto_item_set_len(ptr noundef %149, i32 noundef %152)
  br label %66, !llvm.loop !15

153:                                              ; preds = %66
  %154 = load i32, ptr %10, align 4
  %155 = add i32 %154, 2
  store i32 %155, ptr %10, align 4
  br label %156

156:                                              ; preds = %161, %153
  %157 = load ptr, ptr %9, align 8
  %158 = load i32, ptr %10, align 4
  %159 = call zeroext i16 @tvb_get_ntohs(ptr noundef %157, i32 noundef %158)
  %160 = icmp ne i16 %159, 0
  br i1 %160, label %161, label %216

161:                                              ; preds = %156
  %162 = load i32, ptr %29, align 4
  %163 = add i32 %162, 1
  store i32 %163, ptr %29, align 4
  %164 = load ptr, ptr %26, align 8
  %165 = load i32, ptr @hf_dcom_dualstringarray_security, align 4
  %166 = load ptr, ptr %9, align 8
  %167 = load i32, ptr %10, align 4
  %168 = call ptr @proto_tree_add_item(ptr noundef %164, i32 noundef %165, ptr noundef %166, i32 noundef %167, i32 noundef 0, i32 noundef 0)
  store ptr %168, ptr %30, align 8
  %169 = load ptr, ptr %30, align 8
  %170 = load i32, ptr @ett_dcom_dualstringarray_binding, align 4
  %171 = call ptr @proto_item_add_subtree(ptr noundef %169, i32 noundef %170)
  store ptr %171, ptr %31, align 8
  %172 = load i32, ptr %10, align 4
  store i32 %172, ptr %32, align 4
  %173 = load ptr, ptr %9, align 8
  %174 = load i32, ptr %10, align 4
  %175 = load ptr, ptr %11, align 8
  %176 = load ptr, ptr %31, align 8
  %177 = load ptr, ptr %13, align 8
  %178 = load ptr, ptr %14, align 8
  %179 = load i32, ptr @hf_dcom_dualstringarray_security_authn_svc, align 4
  %180 = call i32 @dissect_ndr_uint16(ptr noundef %173, i32 noundef %174, ptr noundef %175, ptr noundef %176, ptr noundef %177, ptr noundef %178, i32 noundef %179, ptr noundef %23)
  store i32 %180, ptr %10, align 4
  %181 = load ptr, ptr %9, align 8
  %182 = load i32, ptr %10, align 4
  %183 = load ptr, ptr %11, align 8
  %184 = load ptr, ptr %31, align 8
  %185 = load ptr, ptr %13, align 8
  %186 = load ptr, ptr %14, align 8
  %187 = load i32, ptr @hf_dcom_dualstringarray_security_authz_svc, align 4
  %188 = call i32 @dissect_ndr_uint16(ptr noundef %181, i32 noundef %182, ptr noundef %183, ptr noundef %184, ptr noundef %185, ptr noundef %186, i32 noundef %187, ptr noundef %24)
  store i32 %188, ptr %10, align 4
  %189 = load i32, ptr %10, align 4
  store i32 %189, ptr %21, align 4
  %190 = load ptr, ptr %9, align 8
  %191 = load i32, ptr %10, align 4
  %192 = load i32, ptr %20, align 4
  %193 = getelementptr inbounds [1000 x i8], ptr %19, i64 0, i64 0
  %194 = load i32, ptr %20, align 4
  %195 = call i32 @dcom_tvb_get_nwstringz0(ptr noundef %190, i32 noundef %191, i32 noundef %192, ptr noundef %193, i32 noundef %194, ptr noundef %33)
  store i32 %195, ptr %10, align 4
  %196 = load ptr, ptr %31, align 8
  %197 = load i32, ptr @hf_dcom_dualstringarray_security_princ_name, align 4
  %198 = load ptr, ptr %9, align 8
  %199 = load i32, ptr %21, align 4
  %200 = load i32, ptr %10, align 4
  %201 = load i32, ptr %21, align 4
  %202 = sub i32 %200, %201
  %203 = getelementptr inbounds [1000 x i8], ptr %19, i64 0, i64 0
  %204 = call ptr @proto_tree_add_string(ptr noundef %196, i32 noundef %197, ptr noundef %198, i32 noundef %199, i32 noundef %202, ptr noundef %203)
  %205 = load ptr, ptr %30, align 8
  %206 = load i32, ptr %29, align 4
  %207 = load i16, ptr %23, align 2
  %208 = zext i16 %207 to i32
  %209 = load i16, ptr %24, align 2
  %210 = zext i16 %209 to i32
  %211 = getelementptr inbounds [1000 x i8], ptr %19, i64 0, i64 0
  call void (ptr, ptr, ...) @proto_item_append_text(ptr noundef %205, ptr noundef @.str.152, i32 noundef %206, i32 noundef %208, i32 noundef %210, ptr noundef %211)
  %212 = load ptr, ptr %30, align 8
  %213 = load i32, ptr %10, align 4
  %214 = load i32, ptr %32, align 4
  %215 = sub i32 %213, %214
  call void @proto_item_set_len(ptr noundef %212, i32 noundef %215)
  br label %156, !llvm.loop !16

216:                                              ; preds = %156
  %217 = load i32, ptr %10, align 4
  %218 = add i32 %217, 2
  store i32 %218, ptr %10, align 4
  %219 = load ptr, ptr %25, align 8
  %220 = load i32, ptr %28, align 4
  %221 = load i32, ptr %29, align 4
  call void (ptr, ptr, ...) @proto_item_append_text(ptr noundef %219, ptr noundef @.str.153, i32 noundef %220, i32 noundef %221)
  %222 = load ptr, ptr %25, align 8
  %223 = load i32, ptr %10, align 4
  %224 = load i32, ptr %27, align 4
  %225 = sub i32 %223, %224
  call void @proto_item_set_len(ptr noundef %222, i32 noundef %225)
  %226 = load i32, ptr %10, align 4
  ret i32 %226
}