; Function Attrs: nounwind uwtable
define hidden i32 @dissect_dcom_DUALSTRINGARRAY(ptr noundef %0, i32 noundef %1, ptr noundef %2, ptr noundef %3, ptr noundef %4, ptr noundef %5, i32 noundef %6, ptr noundef writeonly %7) local_unnamed_addr #1 {
  %9 = alloca i16, align 2
  %10 = alloca i16, align 2
  %11 = alloca [1000 x i8], align 16
  %12 = alloca i16, align 2
  %13 = alloca i16, align 2
  %14 = alloca i16, align 2
  %15 = alloca i32, align 4
  %16 = alloca i32, align 4
  %17 = alloca i32, align 4
  %18 = alloca i32, align 4
  %19 = alloca %struct._address, align 8
  %20 = alloca %struct._address, align 8
  store i32 0, ptr %16, align 4
  store i32 0, ptr %17, align 4
  %21 = tail call ptr @proto_tree_add_item(ptr noundef %3, i32 noundef %6, ptr noundef %0, i32 noundef %1, i32 noundef 0, i32 noundef 0) #11
  %22 = load i32, ptr @ett_dcom_dualstringarray, align 4
  %23 = tail call ptr @proto_item_add_subtree(ptr noundef %21, i32 noundef %22) #11
  %24 = load i32, ptr @hf_dcom_dualstringarray_num_entries, align 4
  %25 = call i32 @dissect_ndr_uint16(ptr noundef %0, i32 noundef %1, ptr noundef %2, ptr noundef %23, ptr noundef %4, ptr noundef %5, i32 noundef %24, ptr noundef nonnull %9) #11
  %26 = load i32, ptr @hf_dcom_dualstringarray_security_offset, align 4
  %27 = call i32 @dissect_ndr_uint16(ptr noundef %0, i32 noundef %25, ptr noundef %2, ptr noundef %23, ptr noundef %4, ptr noundef %5, i32 noundef %26, ptr noundef nonnull %10) #11
  %28 = call zeroext i16 @tvb_get_ntohs(ptr noundef %0, i32 noundef %27) #11
  %.not105 = icmp eq i16 %28, 0
  br i1 %.not105, label %._crit_edge, label %.lr.ph

.lr.ph:                                           ; preds = %8
  %29 = getelementptr inbounds nuw i8, ptr %19, i64 4
  %30 = getelementptr inbounds nuw i8, ptr %19, i64 8
  %31 = getelementptr inbounds nuw i8, ptr %19, i64 16
  %32 = getelementptr inbounds nuw i8, ptr %20, i64 4
  %33 = getelementptr inbounds nuw i8, ptr %20, i64 8
  %34 = getelementptr inbounds nuw i8, ptr %20, i64 16
  %35 = getelementptr inbounds nuw i8, ptr %2, i64 408
  %.not103 = icmp eq ptr %7, null
  br label %36

36:                                               ; preds = %.lr.ph, %64
  %.0107 = phi i32 [ %27, %.lr.ph ], [ %44, %64 ]
  %.097106 = phi i32 [ 0, %.lr.ph ], [ %37, %64 ]
  %37 = add i32 %.097106, 1
  %38 = load i32, ptr @hf_dcom_dualstringarray_string, align 4
  %39 = call ptr @proto_tree_add_item(ptr noundef %23, i32 noundef %38, ptr noundef %0, i32 noundef %.0107, i32 noundef 0, i32 noundef 0) #11
  %40 = load i32, ptr @ett_dcom_dualstringarray_binding, align 4
  %41 = call ptr @proto_item_add_subtree(ptr noundef %39, i32 noundef %40) #11
  %42 = load i32, ptr @hf_dcom_dualstringarray_string_tower_id, align 4
  %43 = call i32 @dissect_ndr_uint16(ptr noundef %0, i32 noundef %.0107, ptr noundef %2, ptr noundef %41, ptr noundef %4, ptr noundef %5, i32 noundef %42, ptr noundef nonnull %12) #11
  %44 = call fastcc i32 @dcom_tvb_get_nwstringz0(ptr noundef %0, i32 noundef %43, i32 noundef 1000, ptr noundef nonnull %11, i32 noundef 1000, ptr noundef %15)
  %45 = load i32, ptr @hf_dcom_dualstringarray_string_network_addr, align 4
  %46 = sub i32 %44, %43
  %47 = call ptr @proto_tree_add_string(ptr noundef %41, i32 noundef %45, ptr noundef %0, i32 noundef %43, i32 noundef %46, ptr noundef nonnull %11) #11
  %48 = call zeroext i1 @ws_inet_pton4(ptr noundef nonnull %11, ptr noundef nonnull %18) #11
  br i1 %48, label %49, label %64

49:                                               ; preds = %36
  %50 = call i32 @get_host_ipaddr(ptr noundef nonnull %11, ptr noundef nonnull %17) #11
  %.not101 = icmp eq i32 %50, 0
  br i1 %.not101, label %64, label %51

51:                                               ; preds = %49
  %52 = load i32, ptr %16, align 4
  %53 = icmp eq i32 %52, 0
  %.pre = load i32, ptr %17, align 4
  br i1 %53, label %54, label %57

54:                                               ; preds = %51
  br i1 %.not103, label %56, label %55

55:                                               ; preds = %54
  store i32 %.pre, ptr %7, align 1
  br label %56

56:                                               ; preds = %55, %54
  store i32 %.pre, ptr %16, align 4
  br label %64

57:                                               ; preds = %51
  %.not102 = icmp eq i32 %52, %.pre
  br i1 %.not102, label %64, label %58

58:                                               ; preds = %57
  store i32 2, ptr %19, align 8
  store i32 4, ptr %29, align 4
  store ptr %16, ptr %30, align 8
  store ptr null, ptr %31, align 8
  store i32 2, ptr %20, align 8
  store i32 4, ptr %32, align 4
  store ptr %17, ptr %33, align 8
  store ptr null, ptr %34, align 8
  %59 = load ptr, ptr %35, align 8
  %60 = call ptr @address_to_str(ptr noundef %59, ptr noundef nonnull %19) #11
  %61 = load ptr, ptr %35, align 8
  %62 = call ptr @address_to_str(ptr noundef %61, ptr noundef nonnull %20) #11
  %63 = call ptr (ptr, ptr, ptr, ptr, ...) @expert_add_info_format(ptr noundef %2, ptr noundef %47, ptr noundef nonnull @ei_dcom_dualstringarray_mult_ip, ptr noundef nonnull @.str.149, ptr noundef %60, ptr noundef %62) #11
  br label %64

64:                                               ; preds = %49, %57, %58, %56, %36
  %65 = load i16, ptr %12, align 2
  %66 = zext i16 %65 to i32
  %67 = call ptr @val_to_str(i32 noundef %66, ptr noundef nonnull @dcom_protseq_vals, ptr noundef nonnull @.str.151) #11
  call void (ptr, ptr, ...) @proto_item_append_text(ptr noundef %39, ptr noundef nonnull @.str.150, i32 noundef %37, ptr noundef %67, ptr noundef nonnull %11) #11
  %68 = sub i32 %44, %.0107
  call void @proto_item_set_len(ptr noundef %39, i32 noundef %68) #11
  %69 = call zeroext i16 @tvb_get_ntohs(ptr noundef %0, i32 noundef %44) #11
  %.not = icmp eq i16 %69, 0
  br i1 %.not, label %._crit_edge, label %36, !llvm.loop !15

._crit_edge:                                      ; preds = %64, %8
  %.097.lcssa = phi i32 [ 0, %8 ], [ %37, %64 ]
  %.0.lcssa = phi i32 [ %27, %8 ], [ %44, %64 ]
  %70 = add i32 %.0.lcssa, 2
  %71 = call zeroext i16 @tvb_get_ntohs(ptr noundef %0, i32 noundef %70) #11
  %.not100109 = icmp eq i16 %71, 0
  br i1 %.not100109, label %._crit_edge114, label %.lr.ph113

.lr.ph113:                                        ; preds = %._crit_edge, %.lr.ph113
  %.1111 = phi i32 [ %81, %.lr.ph113 ], [ %70, %._crit_edge ]
  %.096110 = phi i32 [ %72, %.lr.ph113 ], [ 0, %._crit_edge ]
  %72 = add i32 %.096110, 1
  %73 = load i32, ptr @hf_dcom_dualstringarray_security, align 4
  %74 = call ptr @proto_tree_add_item(ptr noundef %23, i32 noundef %73, ptr noundef %0, i32 noundef %.1111, i32 noundef 0, i32 noundef 0) #11
  %75 = load i32, ptr @ett_dcom_dualstringarray_binding, align 4
  %76 = call ptr @proto_item_add_subtree(ptr noundef %74, i32 noundef %75) #11
  %77 = load i32, ptr @hf_dcom_dualstringarray_security_authn_svc, align 4
  %78 = call i32 @dissect_ndr_uint16(ptr noundef %0, i32 noundef %.1111, ptr noundef %2, ptr noundef %76, ptr noundef %4, ptr noundef %5, i32 noundef %77, ptr noundef nonnull %13) #11
  %79 = load i32, ptr @hf_dcom_dualstringarray_security_authz_svc, align 4
  %80 = call i32 @dissect_ndr_uint16(ptr noundef %0, i32 noundef %78, ptr noundef %2, ptr noundef %76, ptr noundef %4, ptr noundef %5, i32 noundef %79, ptr noundef nonnull %14) #11
  %81 = call fastcc i32 @dcom_tvb_get_nwstringz0(ptr noundef %0, i32 noundef %80, i32 noundef 1000, ptr noundef nonnull %11, i32 noundef 1000, ptr noundef %15)
  %82 = load i32, ptr @hf_dcom_dualstringarray_security_princ_name, align 4
  %83 = sub i32 %81, %80
  %84 = call ptr @proto_tree_add_string(ptr noundef %76, i32 noundef %82, ptr noundef %0, i32 noundef %80, i32 noundef %83, ptr noundef nonnull %11) #11
  %85 = load i16, ptr %13, align 2
  %86 = zext i16 %85 to i32
  %87 = load i16, ptr %14, align 2
  %88 = zext i16 %87 to i32
  call void (ptr, ptr, ...) @proto_item_append_text(ptr noundef %74, ptr noundef nonnull @.str.152, i32 noundef %72, i32 noundef %86, i32 noundef %88, ptr noundef nonnull %11) #11
  %89 = sub i32 %81, %.1111
  call void @proto_item_set_len(ptr noundef %74, i32 noundef %89) #11
  %90 = call zeroext i16 @tvb_get_ntohs(ptr noundef %0, i32 noundef %81) #11
  %.not100 = icmp eq i16 %90, 0
  br i1 %.not100, label %._crit_edge114, label %.lr.ph113, !llvm.loop !16

._crit_edge114:                                   ; preds = %.lr.ph113, %._crit_edge
  %.096.lcssa = phi i32 [ 0, %._crit_edge ], [ %72, %.lr.ph113 ]
  %.1.lcssa = phi i32 [ %70, %._crit_edge ], [ %81, %.lr.ph113 ]
  %91 = add i32 %.1.lcssa, 2
  call void (ptr, ptr, ...) @proto_item_append_text(ptr noundef %21, ptr noundef nonnull @.str.153, i32 noundef %.097.lcssa, i32 noundef %.096.lcssa) #11
  %92 = sub i32 %.1.lcssa, %25
  %93 = add i32 %92, 4
  call void @proto_item_set_len(ptr noundef %21, i32 noundef %93) #11
  ret i32 %91
}